; Function Attrs: nounwind uwtable
define internal range(i32 -1, 1) i32 @gitdiff_newfile(ptr noundef readonly captures(none) %0, ptr noundef %1, ptr noundef captures(none) initializes((28, 36)) %2) #0 {
  %4 = alloca ptr, align 8
  %5 = getelementptr inbounds nuw i8, ptr %2, i64 32
  store i32 1, ptr %5, align 8, !tbaa !67
  %6 = load ptr, ptr %2, align 8, !tbaa !65
  tail call void @free(ptr noundef %6) #21
  %7 = getelementptr inbounds nuw i8, ptr %2, i64 16
  %8 = load ptr, ptr %7, align 8, !tbaa !63
  %.not.i = icmp eq ptr %8, null
  br i1 %.not.i, label %xstrdup_or_null.exit, label %9

9:                                                ; preds = %3
  %10 = tail call ptr @xstrdup(ptr noundef nonnull %8) #21
  br label %xstrdup_or_null.exit

xstrdup_or_null.exit:                             ; preds = %3, %9
  %11 = phi ptr [ %10, %9 ], [ null, %3 ]
  store ptr %11, ptr %2, align 8, !tbaa !65
  %12 = getelementptr inbounds nuw i8, ptr %0, i64 8
  %13 = load i32, ptr %12, align 8, !tbaa !77
  %14 = getelementptr inbounds nuw i8, ptr %2, i64 28
  call void @llvm.lifetime.start.p0(i64 8, ptr nonnull %4) #21
  %15 = call i64 @strtoul(ptr noundef %1, ptr noundef nonnull %4, i32 noundef 8) #21
  %16 = trunc i64 %15 to i32
  store i32 %16, ptr %14, align 4, !tbaa !34
  %17 = load ptr, ptr %4, align 8, !tbaa !32
  %18 = icmp eq ptr %17, %1
  br i1 %18, label %25, label %19

19:                                               ; preds = %xstrdup_or_null.exit
  %20 = load i8, ptr %17, align 1, !tbaa !53
  %21 = zext i8 %20 to i64
  %22 = getelementptr inbounds nuw [256 x i8], ptr @sane_ctype, i64 0, i64 %21
  %23 = load i8, ptr %22, align 1, !tbaa !53
  %24 = and i8 %23, 1
  %.not.i.i = icmp eq i8 %24, 0
  br i1 %.not.i.i, label %25, label %30

25:                                               ; preds = %19, %xstrdup_or_null.exit
  %26 = load i32, ptr @git_gettext_enabled, align 4, !tbaa !34
  %.not4.i.i.i = icmp eq i32 %26, 0
  br i1 %.not4.i.i.i, label %_.exit.i.i, label %27

27:                                               ; preds = %25
  %28 = tail call ptr @dcgettext(ptr noundef null, ptr noundef nonnull @.str.131, i32 noundef 5) #21
  br label %_.exit.i.i

_.exit.i.i:                                       ; preds = %27, %25
  %.0.i.i.i = phi ptr [ %28, %27 ], [ @.str.131, %25 ]
  %29 = tail call i32 (ptr, ...) @error(ptr noundef %.0.i.i.i, i32 noundef %13, ptr noundef %1) #21
  br label %gitdiff_newmode.exit

30:                                               ; preds = %19
  %31 = trunc i64 %15 to i16
  %trunc.i.i.i = and i16 %31, -4096
  switch i16 %trunc.i.i.i, label %36 [
    i16 -32768, label %32
    i16 -24576, label %canon_mode.exit.i.i
    i16 16384, label %35
  ]

32:                                               ; preds = %30
  %33 = and i32 %16, 64
  %.not.i.i.i = icmp eq i32 %33, 0
  %34 = select i1 %.not.i.i.i, i32 33188, i32 33261
  br label %canon_mode.exit.i.i

35:                                               ; preds = %30
  br label %canon_mode.exit.i.i

36:                                               ; preds = %30
  br label %canon_mode.exit.i.i

canon_mode.exit.i.i:                              ; preds = %36, %35, %32, %30
  %.0.i8.i.i = phi i32 [ %34, %32 ], [ 16384, %35 ], [ 57344, %36 ], [ 40960, %30 ]
  store i32 %.0.i8.i.i, ptr %14, align 4, !tbaa !34
  br label %gitdiff_newmode.exit

gitdiff_newmode.exit:                             ; preds = %_.exit.i.i, %canon_mode.exit.i.i
  %.0.i.i = phi i32 [ -1, %_.exit.i.i ], [ 0, %canon_mode.exit.i.i ]
  call void @llvm.lifetime.end.p0(i64 8, ptr nonnull %4) #21
  ret i32 %.0.i.i
}